; Function Attrs: nofree norecurse nosync nounwind memory(read, inaccessiblemem: none) uwtable
define hidden signext range(i8 0, 2) i8 @nfaExecMcClellan8_inAccept(ptr noundef readonly captures(none) %0, i32 noundef %1, ptr noundef readonly captures(none) %2) local_unnamed_addr #3 {
  %4 = getelementptr inbounds nuw i8, ptr %2, i64 16
  %5 = load ptr, ptr %4, align 8
  %6 = load i8, ptr %5, align 1
  %7 = getelementptr inbounds nuw i8, ptr %0, i64 90
  %8 = load i16, ptr %7, align 2
  %9 = zext i8 %6 to i16
  %10 = icmp ugt i16 %8, %9
  br i1 %10, label %mcclellanHasAccept.exit, label %11

11:                                               ; preds = %3
  %12 = getelementptr inbounds nuw i8, ptr %0, i64 76
  %13 = load i32, ptr %12, align 4
  %14 = zext i32 %13 to i64
  %15 = getelementptr inbounds nuw i8, ptr %0, i64 %14
  %16 = zext i8 %6 to i64
  %17 = getelementptr inbounds nuw %struct.mstate_aux, ptr %15, i64 %16
  %.val = load i32, ptr %17, align 4
  %.not.i = icmp eq i32 %.val, 0
  br i1 %.not.i, label %mcclellanHasAccept.exit, label %18

18:                                               ; preds = %11
  %19 = getelementptr inbounds nuw i8, ptr %0, i64 64
  %20 = zext i32 %.val to i64
  %21 = getelementptr inbounds nuw i8, ptr %19, i64 %20
  %22 = getelementptr inbounds i8, ptr %21, i64 -64
  %23 = getelementptr inbounds i8, ptr %21, i64 -60
  %24 = load i32, ptr %22, align 4
  %.not131.not.i = icmp eq i32 %24, 0
  br i1 %.not131.not.i, label %mcclellanHasAccept.exit, label %.lr.ph.preheader.i

.lr.ph.preheader.i:                               ; preds = %18
  %wide.trip.count.i = zext i32 %24 to i64
  br label %.lr.ph.i

25:                                               ; preds = %.lr.ph.i
  %indvars.iv.next.i = add nuw nsw i64 %indvars.iv.i, 1
  %exitcond.not.i = icmp eq i64 %indvars.iv.next.i, %wide.trip.count.i
  br i1 %exitcond.not.i, label %mcclellanHasAccept.exit, label %.lr.ph.i

.lr.ph.i:                                         ; preds = %25, %.lr.ph.preheader.i
  %indvars.iv.i = phi i64 [ 0, %.lr.ph.preheader.i ], [ %indvars.iv.next.i, %25 ]
  %26 = getelementptr inbounds nuw [0 x i32], ptr %23, i64 0, i64 %indvars.iv.i
  %27 = load i32, ptr %26, align 4
  %28 = icmp eq i32 %27, %1
  br i1 %28, label %mcclellanHasAccept.exit, label %25

mcclellanHasAccept.exit:                          ; preds = %.lr.ph.i, %25, %18, %11, %3
  %.0 = phi i8 [ 0, %3 ], [ 0, %11 ], [ 0, %18 ], [ 0, %25 ], [ 1, %.lr.ph.i ]
  ret i8 %.0
}